; Function Attrs: nounwind uwtable
define ptr @l_StateT_orElse___rarg(ptr noundef %0, ptr readnone captures(none) %1, ptr noundef %2, ptr noundef %3, ptr noundef %4) #0 {
  %6 = ptrtoint ptr %4 to i64
  %7 = and i64 %6, 1
  %.not = icmp eq i64 %7, 0
  br i1 %.not, label %8, label %lean_inc.exit14

8:                                                ; preds = %5
  %.val.i = load i32, ptr %4, align 4, !tbaa !4
  %9 = icmp sgt i32 %.val.i, 0
  br i1 %9, label %10, label %12, !prof !13

10:                                               ; preds = %8
  %11 = add nuw i32 %.val.i, 1
  store i32 %11, ptr %4, align 4, !tbaa !4
  br label %lean_inc.exit14

12:                                               ; preds = %8
  %.not.i15 = icmp eq i32 %.val.i, 0
  br i1 %.not.i15, label %lean_inc.exit14, label %13

13:                                               ; preds = %12
  tail call void @lean_inc_ref_cold(ptr noundef nonnull %4) #3
  br label %lean_inc.exit14

lean_inc.exit14:                                  ; preds = %13, %12, %10, %5
  %14 = tail call ptr @lean_apply_1(ptr noundef %2, ptr noundef %4) #3
  tail call void @lean_inc_heartbeat() #3
  %15 = tail call noalias ptr @mi_malloc_small(i64 noundef 40) #3
  %16 = icmp eq ptr %15, null
  br i1 %16, label %17, label %lean_alloc_closure.exit

17:                                               ; preds = %lean_inc.exit14
  tail call void @lean_internal_panic_out_of_memory() #4
  unreachable

lean_alloc_closure.exit:                          ; preds = %lean_inc.exit14
  %18 = getelementptr inbounds nuw i8, ptr %15, i64 4
  store i32 1, ptr %15, align 4, !tbaa !4
  store i32 -184549336, ptr %18, align 4
  %19 = getelementptr inbounds nuw i8, ptr %15, i64 8
  store ptr @l_StateT_orElse___rarg___lambda__1___boxed, ptr %19, align 8, !tbaa !9
  %20 = getelementptr inbounds nuw i8, ptr %15, i64 16
  store i16 3, ptr %20, align 8, !tbaa !11
  %21 = getelementptr inbounds nuw i8, ptr %15, i64 18
  store i16 2, ptr %21, align 2, !tbaa !11
  %22 = getelementptr inbounds nuw i8, ptr %15, i64 24
  store ptr %3, ptr %22, align 8, !tbaa !9
  %23 = getelementptr inbounds nuw i8, ptr %15, i64 32
  store ptr %4, ptr %23, align 8, !tbaa !9
  %24 = getelementptr inbounds nuw i8, ptr %0, i64 24
  %25 = load ptr, ptr %24, align 8, !tbaa !9
  %26 = ptrtoint ptr %25 to i64
  %27 = and i64 %26, 1
  %.not19 = icmp eq i64 %27, 0
  br i1 %.not19, label %28, label %lean_inc.exit

28:                                               ; preds = %lean_alloc_closure.exit
  %.val.i16 = load i32, ptr %25, align 4, !tbaa !4
  %29 = icmp sgt i32 %.val.i16, 0
  br i1 %29, label %30, label %32, !prof !13

30:                                               ; preds = %28
  %31 = add nuw i32 %.val.i16, 1
  store i32 %31, ptr %25, align 4, !tbaa !4
  br label %lean_inc.exit

32:                                               ; preds = %28
  %.not.i17 = icmp eq i32 %.val.i16, 0
  br i1 %.not.i17, label %lean_inc.exit, label %33

33:                                               ; preds = %32
  tail call void @lean_inc_ref_cold(ptr noundef nonnull %25) #3
  br label %lean_inc.exit

lean_inc.exit:                                    ; preds = %33, %32, %30, %lean_alloc_closure.exit
  %34 = ptrtoint ptr %0 to i64
  %35 = and i64 %34, 1
  %.not20 = icmp eq i64 %35, 0
  br i1 %.not20, label %36, label %lean_dec.exit

36:                                               ; preds = %lean_inc.exit
  %37 = load i32, ptr %0, align 4, !tbaa !4
  %38 = icmp sgt i32 %37, 1
  br i1 %38, label %39, label %41, !prof !13

39:                                               ; preds = %36
  %40 = add nsw i32 %37, -1
  store i32 %40, ptr %0, align 4, !tbaa !4
  br label %lean_dec.exit

41:                                               ; preds = %36
  %.not.i = icmp eq i32 %37, 0
  br i1 %.not.i, label %lean_dec.exit, label %42

42:                                               ; preds = %41
  tail call void @lean_dec_ref_cold(ptr noundef nonnull %0) #3
  br label %lean_dec.exit

lean_dec.exit:                                    ; preds = %42, %41, %39, %lean_inc.exit
  %43 = tail call ptr @lean_apply_3(ptr noundef %25, ptr noundef nonnull inttoptr (i64 1 to ptr), ptr noundef %14, ptr noundef nonnull %15) #3
  ret ptr %43
}